; Function Attrs: mustprogress uwtable
define void @_ZN3gmx12AnalysisData15setDataSetCountEi(ptr noundef nonnull align 8 dereferenceable(24) %0, i32 noundef %1) local_unnamed_addr #1 align 2 {
  %3 = getelementptr inbounds nuw i8, ptr %0, i64 16
  %4 = load ptr, ptr %3, align 8, !tbaa !4
  %5 = getelementptr inbounds nuw i8, ptr %4, i64 8
  %6 = load ptr, ptr %5, align 8, !tbaa !20
  %7 = getelementptr inbounds nuw i8, ptr %4, i64 16
  %8 = load ptr, ptr %7, align 8, !tbaa !20
  %9 = icmp eq ptr %6, %8
  br i1 %9, label %11, label %10

10:                                               ; preds = %2
  tail call void @_ZN3gmx8internal13assertHandlerEPKcS2_S2_S2_i(ptr noundef nonnull @.str, ptr noundef nonnull @.str.1, ptr noundef nonnull @"__PRETTY_FUNCTION__._ZZN3gmx12AnalysisData15setDataSetCountEiENK3$_0clEv", ptr noundef nonnull @.str.2, i32 noundef 127) #15
  unreachable

11:                                               ; preds = %2
  tail call void @_ZN3gmx20AbstractAnalysisData15setDataSetCountEi(ptr noundef nonnull align 8 dereferenceable(16) %0, i32 noundef %1)
  ret void
}